target datalayout = "e-m:e-p270:32:32-p271:32:32-p272:64:64-i64:64-i128:128-f80:128-n8:16:32:64-S128"
target triple = "x86_64-pc-linux-gnu"

; Function Attrs: nounwind uwtable
define internal i32 @open_null_ctx(ptr noundef %0) #0 {
  %2 = alloca i32, align 4
  %3 = alloca ptr, align 8
  %4 = alloca i32, align 4
  %5 = alloca ptr, align 8
  %6 = alloca i32, align 4
  store ptr %0, ptr %3, align 8, !tbaa !149
  call void @llvm.lifetime.start.p0(i64 4, ptr %4) #12
  store i32 32768, ptr %4, align 4, !tbaa !36
  call void @llvm.lifetime.start.p0(i64 8, ptr %5) #12
  %7 = load i32, ptr %4, align 4, !tbaa !36
  %8 = sext i32 %7 to i64
  %9 = call noalias ptr @av_malloc(i64 noundef %8)
  store ptr %9, ptr %5, align 8, !tbaa !63
  %10 = load ptr, ptr %5, align 8, !tbaa !63
  %11 = icmp ne ptr %10, null
  br i1 %11, label %13, label %12

12:                                               ; preds = %1
  store i32 -12, ptr %2, align 4
  store i32 1, ptr %6, align 4
  br label %24

13:                                               ; preds = %1
  %14 = load ptr, ptr %5, align 8, !tbaa !63
  %15 = load i32, ptr %4, align 4, !tbaa !36
  %16 = call ptr @avio_alloc_context(ptr noundef %14, i32 noundef %15, i32 noundef 1, ptr noundef null, ptr noundef null, ptr noundef null, ptr noundef null)
  %17 = load ptr, ptr %3, align 8, !tbaa !149
  store ptr %16, ptr %17, align 8, !tbaa !151
  %18 = load ptr, ptr %3, align 8, !tbaa !149
  %19 = load ptr, ptr %18, align 8, !tbaa !151
  %20 = icmp ne ptr %19, null
  br i1 %20, label %23, label %21

21:                                               ; preds = %13
  %22 = load ptr, ptr %5, align 8, !tbaa !63
  call void @av_free(ptr noundef %22)
  store i32 -12, ptr %2, align 4
  store i32 1, ptr %6, align 4
  br label %24

23:                                               ; preds = %13
  store i32 0, ptr %2, align 4
  store i32 1, ptr %6, align 4
  br label %24

24:                                               ; preds = %23, %21, %12
  call void @llvm.lifetime.end.p0(i64 8, ptr %5) #12
  call void @llvm.lifetime.end.p0(i64 4, ptr %4) #12
  %25 = load i32, ptr %2, align 4
  ret i32 %25
}