; Function Attrs: nounwind uwtable
define internal fastcc range(i32 -12, 1) i32 @open_null_ctx(ptr noundef writeonly captures(none) %0) unnamed_addr #0 {
  %2 = tail call noalias ptr @av_malloc(i64 noundef 32768) #13
  %.not = icmp eq ptr %2, null
  br i1 %.not, label %6, label %3

3:                                                ; preds = %1
  %4 = tail call ptr @avio_alloc_context(ptr noundef nonnull %2, i32 noundef 32768, i32 noundef 1, ptr noundef null, ptr noundef null, ptr noundef null, ptr noundef null) #13
  store ptr %4, ptr %0, align 8, !tbaa !35
  %.not8 = icmp eq ptr %4, null
  br i1 %.not8, label %5, label %6

5:                                                ; preds = %3
  tail call void @av_free(ptr noundef nonnull %2) #13
  br label %6

6:                                                ; preds = %3, %1, %5
  %.0 = phi i32 [ -12, %5 ], [ -12, %1 ], [ 0, %3 ]
  ret i32 %.0
}